(dp1
S'files'
p2
(dp3
S'cse491_env_lib_python2_7_site-packages_markupsafe__compat'
p4
(dp5
S'index'
p6
(dp7
S'html_filename'
p8
S'cse491_env_lib_python2_7_site-packages_markupsafe__compat.html'
p9
sS'name'
p10
S'cse491.env/lib/python2.7/site-packages/markupsafe/_compat'
p11
sS'nums'
p12
ccopy_reg
_reconstructor
p13
(ccoverage.results
Numbers
p14
c__builtin__
object
p15
NtRp16
(dp17
S'n_files'
p18
I1
sS'n_branches'
p19
I0
sS'n_statements'
p20
I12
sS'n_excluded'
p21
I0
sS'n_partial_branches'
p22
I0
sS'n_missing'
p23
I4
sS'n_missing_branches'
p24
I0
sbssS'hash'
p25
S'\x8c\xb6\xc1\xcd\x85\x93\x83\xddWpn\xaaf\x8a2,'
p26
ssS'cse491_env_lib_python2_7_site-packages_jinja2_optimizer'
p27
(dp28
g6
(dp29
g8
S'cse491_env_lib_python2_7_site-packages_jinja2_optimizer.html'
p30
sg10
S'cse491.env/lib/python2.7/site-packages/jinja2/optimizer'
p31
sg12
g13
(g14
g15
NtRp32
(dp33
g18
I1
sg19
I0
sg20
I31
sg21
I0
sg22
I0
sg23
I13
sg24
I0
sbssg25
S'\x0cS\xf5\x96\x8a\xc9|~\xef\xbe\xcb\xa2>\x0bk\xca'
p34
ssS'cse491_env_lib_python2_7_site-packages_jinja2_visitor'
p35
(dp36
g6
(dp37
g8
S'cse491_env_lib_python2_7_site-packages_jinja2_visitor.html'
p38
sg10
S'cse491.env/lib/python2.7/site-packages/jinja2/visitor'
p39
sg12
g13
(g14
g15
NtRp40
(dp41
g18
I1
sg19
I0
sg20
I40
sg21
I0
sg22
I0
sg23
I8
sg24
I0
sbssg25
S'+&9m\xe7\x0f\xabq\x87\xaf;EL\x84#i'
p42
ssS'cse491_env_lib_python2_7_site-packages_jinja2_nodes'
p43
(dp44
g6
(dp45
g8
S'cse491_env_lib_python2_7_site-packages_jinja2_nodes.html'
p46
sg10
S'cse491.env/lib/python2.7/site-packages/jinja2/nodes'
p47
sg12
g13
(g14
g15
NtRp48
(dp49
g18
I1
sg19
I0
sg20
I423
sg21
I0
sg22
I0
sg23
I175
sg24
I0
sbssg25
S'\x1d\xaa\x98L\xb4\xc1\x8a\x07\xf2\x1e*0\xd3\xe0\xaf\xc9'
p50
ssS'cse491_env_lib_python2_7_site-packages_nose_plugins_logcapture'
p51
(dp52
g6
(dp53
g8
S'cse491_env_lib_python2_7_site-packages_nose_plugins_logcapture.html'
p54
sg10
S'cse491.env/lib/python2.7/site-packages/nose/plugins/logcapture'
p55
sg12
g13
(g14
g15
NtRp56
(dp57
g18
I1
sg19
I0
sg20
I125
sg21
I0
sg22
I0
sg23
I114
sg24
I0
sbssg25
S'\xccN\xe6\x86\x88`\x1e\xb7\xeb\xf4\x14^\x8f\xa5-\xf2'
p58
ssS'cse491_env_lib_python2_7_site-packages_nose_result'
p59
(dp60
g6
(dp61
g8
S'cse491_env_lib_python2_7_site-packages_nose_result.html'
p62
sg10
S'cse491.env/lib/python2.7/site-packages/nose/result'
p63
sg12
g13
(g14
g15
NtRp64
(dp65
g18
I1
sg19
I0
sg20
I131
sg21
I0
sg22
I0
sg23
I119
sg24
I0
sbssg25
S'\xbfT\xf7\xbd\xe5\x8b\xec~E\x94\xba\xbd\xd9\xcc\x84\x97'
p66
ssS'cse491_env_lib_python2_7_site-packages_nose_pyversion'
p67
(dp68
g6
(dp69
g8
S'cse491_env_lib_python2_7_site-packages_nose_pyversion.html'
p70
sg10
S'cse491.env/lib/python2.7/site-packages/nose/pyversion'
p71
sg12
g13
(g14
g15
NtRp72
(dp73
g18
I1
sg19
I0
sg20
I92
sg21
I0
sg22
I0
sg23
I88
sg24
I0
sbssg25
S'\xca^\x90\xcb%\xe3\xfdu\xf3\x85\x02?C\re\xa7'
p74
ssS'cse491_env_lib_python2_7_site-packages_nose_suite'
p75
(dp76
g6
(dp77
g8
S'cse491_env_lib_python2_7_site-packages_nose_suite.html'
p78
sg10
S'cse491.env/lib/python2.7/site-packages/nose/suite'
p79
sg12
g13
(g14
g15
NtRp80
(dp81
g18
I1
sg19
I0
sg20
I394
sg21
I0
sg22
I0
sg23
I236
sg24
I0
sbssg25
S'd\x00\xf4\xb4)y\xaa\xed\xb1\x93C\xb5\xeb\x7f\xad\xd6'
p82
ssS'cse491_env_lib_python2_7_site-packages_markupsafe___init__'
p83
(dp84
g6
(dp85
g8
S'cse491_env_lib_python2_7_site-packages_markupsafe___init__.html'
p86
sg10
S'cse491.env/lib/python2.7/site-packages/markupsafe/__init__'
p87
sg12
g13
(g14
g15
NtRp88
(dp89
g18
I1
sg19
I0
sg20
I112
sg21
I0
sg22
I0
sg23
I58
sg24
I0
sbssg25
S'4\x0c\xad\x16\xa7a\x86\xb4\x07\xack\x85\xc1\xe3\xd5\xd3'
p90
ssS'cse491_env_lib_python2_7_site-packages_nose_plugins_errorclass'
p91
(dp92
g6
(dp93
g8
S'cse491_env_lib_python2_7_site-packages_nose_plugins_errorclass.html'
p94
sg10
S'cse491.env/lib/python2.7/site-packages/nose/plugins/errorclass'
p95
sg12
g13
(g14
g15
NtRp96
(dp97
g18
I1
sg19
I0
sg20
I65
sg21
I0
sg22
I0
sg23
I59
sg24
I0
sbssg25
S'4\x13v=\xdeK!\x190-\xf5\x00\xcd\n\x80_'
p98
ssS'cse491_env_lib_python2_7_site-packages_nose_proxy'
p99
(dp100
g6
(dp101
g8
S'cse491_env_lib_python2_7_site-packages_nose_proxy.html'
p102
sg10
S'cse491.env/lib/python2.7/site-packages/nose/proxy'
p103
sg12
g13
(g14
g15
NtRp104
(dp105
g18
I1
sg19
I0
sg20
I108
sg21
I0
sg22
I0
sg23
I75
sg24
I0
sbssg25
S'\xa8?\x17\xc2j\xad\x13\xe7\x98w\xd3~\xe8\n\xc1\xe2'
p106
ssS'cse491_env_lib_python2_7_site-packages_nose_importer'
p107
(dp108
g6
(dp109
g8
S'cse491_env_lib_python2_7_site-packages_nose_importer.html'
p110
sg10
S'cse491.env/lib/python2.7/site-packages/nose/importer'
p111
sg12
g13
(g14
g15
NtRp112
(dp113
g18
I1
sg19
I0
sg20
I101
sg21
I0
sg22
I0
sg23
I53
sg24
I0
sbssg25
S'\x9d\xbe<\xcdi\xa6=`!\xf4mX\xd7\x1a/*'
p114
ssS'cse491_env_lib_python2_7_site-packages_jinja2_environment'
p115
(dp116
g6
(dp117
S'html_filename'
p118
S'cse491_env_lib_python2_7_site-packages_jinja2_environment.html'
p119
sS'name'
p120
S'cse491.env/lib/python2.7/site-packages/jinja2/environment'
p121
sS'nums'
p122
g13
(g14
g15
NtRp123
(dp124
g18
I1
sg19
I0
sg20
I488
sg21
I0
sg22
I0
sg23
I295
sg24
I0
sbssg25
S"\x11\xe9\xde' \xe3\xe7\xed\x98Q,w\x8c\x19\xda\xb8"
p125
ssS'cse491_env_lib_python2_7_site-packages_nose_case'
p126
(dp127
g6
(dp128
g8
S'cse491_env_lib_python2_7_site-packages_nose_case.html'
p129
sg10
S'cse491.env/lib/python2.7/site-packages/nose/case'
p130
sg12
g13
(g14
g15
NtRp131
(dp132
g18
I1
sg19
I0
sg20
I204
sg21
I0
sg22
I0
sg23
I163
sg24
I0
sbssg25
S'\xedk3\xdb{\xf7\x95\xec\xcf\x98\xf2\xad46\xa7\xae'
p133
ssS'cse491_env_lib_python2_7_site-packages_jinja2_utils'
p134
(dp135
g6
(dp136
g8
S'cse491_env_lib_python2_7_site-packages_jinja2_utils.html'
p137
sg10
S'cse491.env/lib/python2.7/site-packages/jinja2/utils'
p138
sg12
g13
(g14
g15
NtRp139
(dp140
g18
I1
sg19
I0
sg20
I263
sg21
I0
sg22
I0
sg23
I166
sg24
I0
sbssg25
S'P\xab\x1c\xd0F,\x89_G\xf2o\x13\xa1|\xf4\xa8'
p141
ssS'cse491_env_lib_python2_7_site-packages_jinja2___init__'
p142
(dp143
g6
(dp144
g8
S'cse491_env_lib_python2_7_site-packages_jinja2___init__.html'
p145
sg10
S'cse491.env/lib/python2.7/site-packages/jinja2/__init__'
p146
sg12
g13
(g14
g15
NtRp147
(dp148
g18
I1
sg19
I0
sg20
I11
sg21
I0
sg22
I0
sg23
I0
sg24
I0
sbssg25
S'\xc2$\x8d\x9e.l\x1b;A\t,G\xf5\xf12\x91'
p149
ssS'cse491_env_lib_python2_7_site-packages_nose_plugins_capture'
p150
(dp151
g6
(dp152
g8
S'cse491_env_lib_python2_7_site-packages_nose_plugins_capture.html'
p153
sg10
S'cse491.env/lib/python2.7/site-packages/nose/plugins/capture'
p154
sg12
g13
(g14
g15
NtRp155
(dp156
g18
I1
sg19
I0
sg20
I66
sg21
I0
sg22
I0
sg23
I58
sg24
I0
sbssg25
S'A\x0b\x9b\xf8\x01]\x89\xc4!FIjJ\xc0\x9a\xd5'
p157
ssS'cse491_env_lib_python2_7_site-packages_jinja2__compat'
p158
(dp159
g6
(dp160
g8
S'cse491_env_lib_python2_7_site-packages_jinja2__compat.html'
p161
sg10
S'cse491.env/lib/python2.7/site-packages/jinja2/_compat'
p162
sg12
g13
(g14
g15
NtRp163
(dp164
g18
I1
sg19
I0
sg20
I98
sg21
I0
sg22
I0
sg23
I35
sg24
I0
sbssg25
S'@u\t\x99\xbd\xbah\xdc\xa2\x9a\x18b\x12T\x89\x93'
p165
ssS'cse491_env_lib_python2_7_site-packages_jinja2_parser'
p166
(dp167
g6
(dp168
g8
S'cse491_env_lib_python2_7_site-packages_jinja2_parser.html'
p169
sg10
S'cse491.env/lib/python2.7/site-packages/jinja2/parser'
p170
sg12
g13
(g14
g15
NtRp171
(dp172
g18
I1
sg19
I0
sg20
I646
sg21
I0
sg22
I0
sg23
I422
sg24
I0
sbssg25
S'\xc6\xd6\x0bi,>\x02\x80?\xdd\xf2\xbd<r\xd2\xe0'
p173
ssS'cse491_env_lib_python2_7_site-packages_jinja2_defaults'
p174
(dp175
g6
(dp176
g8
S'cse491_env_lib_python2_7_site-packages_jinja2_defaults.html'
p177
sg10
S'cse491.env/lib/python2.7/site-packages/jinja2/defaults'
p178
sg12
g13
(g14
g15
NtRp179
(dp180
g18
I1
sg19
I0
sg20
I19
sg21
I0
sg22
I0
sg23
I0
sg24
I0
sbssg25
S'\xe2s1\x07\x11\xcc\xb8t@\xa5n<\x98\x97"j'
p181
ssS'cse491_env_lib_python2_7_site-packages_jinja2_compiler'
p182
(dp183
g6
(dp184
g8
S'cse491_env_lib_python2_7_site-packages_jinja2_compiler.html'
p185
sg10
S'cse491.env/lib/python2.7/site-packages/jinja2/compiler'
p186
sg12
g13
(g14
g15
NtRp187
(dp188
g18
I1
sg19
I0
sg20
I1030
sg21
I0
sg22
I0
sg23
I704
sg24
I0
sbssg25
S'\x15\xa6\xcd\xf6\xa6\xabjd\x03^\x16\xb2\xa4\xf5\xb5\x92'
p189
ssS'cse491_env_lib_python2_7_site-packages_nose_plugins_manager'
p190
(dp191
g6
(dp192
g8
S'cse491_env_lib_python2_7_site-packages_nose_plugins_manager.html'
p193
sg10
S'cse491.env/lib/python2.7/site-packages/nose/plugins/manager'
p194
sg12
g13
(g14
g15
NtRp195
(dp196
g18
I1
sg19
I0
sg20
I265
sg21
I0
sg22
I0
sg23
I234
sg24
I0
sbssg25
S"\x06\x86\xacD~?\xc2d\x08C\xd2'xe5\xf8"
p197
ssS'cse491_env_lib_python2_7_site-packages_jinja2_lexer'
p198
(dp199
g6
(dp200
g8
S'cse491_env_lib_python2_7_site-packages_jinja2_lexer.html'
p201
sg10
S'cse491.env/lib/python2.7/site-packages/jinja2/lexer'
p202
sg12
g13
(g14
g15
NtRp203
(dp204
g18
I1
sg19
I0
sg20
I346
sg21
I0
sg22
I0
sg23
I97
sg24
I0
sbssg25
S'a\xe4XJ\xdf0\xc0\xac \xc7\xfa\xba*V\xb1>'
p205
ssS'cse491_env_lib_python2_7_site-packages_nose_plugins_cover'
p206
(dp207
g6
(dp208
g8
S'cse491_env_lib_python2_7_site-packages_nose_plugins_cover.html'
p209
sg10
S'cse491.env/lib/python2.7/site-packages/nose/plugins/cover'
p210
sg12
g13
(g14
g15
NtRp211
(dp212
g18
I1
sg19
I0
sg20
I138
sg21
I0
sg22
I0
sg23
I134
sg24
I0
sbssg25
S'WX\x92{\x8f\x10\xee\xbe\xb6d\xc4M\xe3O\x07\x91'
p213
ssS'test_server'
p214
(dp215
g6
(dp216
g8
S'test_server.html'
p217
sg10
g214
sg12
g13
(g14
g15
NtRp218
(dp219
g18
I1
sg19
I0
sg20
I73
sg21
I0
sg22
I0
sg23
I3
sg24
I0
sbssg25
S"H\xda\x80V\xf0ZG\xeb\xa9\x0e\xba\x16'\xab\xfc$"
p220
ssS'cse491_env_lib_python2_7_site-packages_jinja2_bccache'
p221
(dp222
g6
(dp223
g8
S'cse491_env_lib_python2_7_site-packages_jinja2_bccache.html'
p224
sg10
S'cse491.env/lib/python2.7/site-packages/jinja2/bccache'
p225
sg12
g13
(g14
g15
NtRp226
(dp227
g18
I1
sg19
I0
sg20
I143
sg21
I0
sg22
I0
sg23
I101
sg24
I0
sbssg25
S"\xc5\x0f'\xccc\xaf\xd1=|\xeey\xd9&\xf3>\x92"
p228
ssS'cse491_env_lib_python2_7_site-packages_jinja2_exceptions'
p229
(dp230
g6
(dp231
g8
S'cse491_env_lib_python2_7_site-packages_jinja2_exceptions.html'
p232
sg10
S'cse491.env/lib/python2.7/site-packages/jinja2/exceptions'
p233
sg12
g13
(g14
g15
NtRp234
(dp235
g18
I1
sg19
I0
sg20
I70
sg21
I0
sg22
I0
sg23
I47
sg24
I0
sbssg25
S'\xf3z\xf9\xb0i}\xb8\xf8a\x05\xda\n?\x1c\xfb\x1d'
p236
ssS'cse491_env_lib_python2_7_site-packages_nose_selector'
p237
(dp238
g6
(dp239
g8
S'cse491_env_lib_python2_7_site-packages_nose_selector.html'
p240
sg10
S'cse491.env/lib/python2.7/site-packages/nose/selector'
p241
sg12
g13
(g14
g15
NtRp242
(dp243
g18
I1
sg19
I0
sg20
I134
sg21
I0
sg22
I0
sg23
I68
sg24
I0
sbssg25
S'\xfb\xe8\x1fq\xc1\xe8\x1d\xc0\x17/\x9e\x98\xc8\x04\xbf&'
p244
ssS'cse491_env_lib_python2_7_site-packages_nose_loader'
p245
(dp246
g6
(dp247
g8
S'cse491_env_lib_python2_7_site-packages_nose_loader.html'
p248
sg10
S'cse491.env/lib/python2.7/site-packages/nose/loader'
p249
sg12
g13
(g14
g15
NtRp250
(dp251
g18
I1
sg19
I0
sg20
I351
sg21
I0
sg22
I0
sg23
I235
sg24
I0
sbssg25
S'\x80\xc8\r\xe9\xfd\xbb\x94\xc2_\xcf=\xe9)\x9e(\xa7'
p252
ssS'cse491_env_lib_python2_7_site-packages_jinja2_filters'
p253
(dp254
g6
(dp255
g8
S'cse491_env_lib_python2_7_site-packages_jinja2_filters.html'
p256
sg10
S'cse491.env/lib/python2.7/site-packages/jinja2/filters'
p257
sg12
g13
(g14
g15
NtRp258
(dp259
g18
I1
sg19
I0
sg20
I343
sg21
I0
sg22
I0
sg23
I265
sg24
I0
sbssg25
S'\xef#\xc6\xad\x92\x96v^M\x9d\xf0\xfeR\xcal\xc5'
p260
ssS'cse491_env_lib_python2_7_site-packages_jinja2_tests'
p261
(dp262
g6
(dp263
g8
S'cse491_env_lib_python2_7_site-packages_jinja2_tests.html'
p264
sg10
S'cse491.env/lib/python2.7/site-packages/jinja2/tests'
p265
sg12
g13
(g14
g15
NtRp266
(dp267
g18
I1
sg19
I0
sg20
I47
sg21
I0
sg22
I0
sg23
I24
sg24
I0
sbssg25
S'\xb1[}x+R\x19\xd1\xe4\xc4\xf3\xcb"5\xe8\xfd'
p268
ssS'server'
p269
(dp270
g6
(dp271
g118
S'server.html'
p272
sg120
S'server'
p273
sg122
g13
(g14
g15
NtRp274
(dp275
g18
I1
sg19
I0
sg20
I62
sg21
I0
sg22
I0
sg23
I9
sg24
I0
sbssg25
S'\xd1\xf2\xa3{\x03oS\x90S\xe4\xba\xbcY\xb9\xc0\x9e'
p276
ssS'cse491_env_lib_python2_7_site-packages_jinja2_runtime'
p277
(dp278
g6
(dp279
g8
S'cse491_env_lib_python2_7_site-packages_jinja2_runtime.html'
p280
sg10
S'cse491.env/lib/python2.7/site-packages/jinja2/runtime'
p281
sg12
g13
(g14
g15
NtRp282
(dp283
g18
I1
sg19
I0
sg20
I291
sg21
I0
sg22
I0
sg23
I175
sg24
I0
sbssg25
S'P\xedP6\xe1\x01Q\xf6zG\xbd\x077If\xf4'
p284
ssS'cse491_env_lib_python2_7_site-packages_nose_util'
p285
(dp286
g6
(dp287
g8
S'cse491_env_lib_python2_7_site-packages_nose_util.html'
p288
sg10
S'cse491.env/lib/python2.7/site-packages/nose/util'
p289
sg12
g13
(g14
g15
NtRp290
(dp291
g18
I1
sg19
I0
sg20
I341
sg21
I0
sg22
I0
sg23
I274
sg24
I0
sbssg25
S'WBA\xb2\xb9\xd8\x91A\t\xc5\xba\xfb$\xe6\x11\xe3'
p292
ssS'cse491_env_lib_python2_7_site-packages_nose_core'
p293
(dp294
g6
(dp295
g8
S'cse491_env_lib_python2_7_site-packages_nose_core.html'
p296
sg10
S'cse491.env/lib/python2.7/site-packages/nose/core'
p297
sg12
g13
(g14
g15
NtRp298
(dp299
g18
I1
sg19
I0
sg20
I162
sg21
I0
sg22
I0
sg23
I140
sg24
I0
sbssg25
S'\x92\xc0\x98\xbb\xb98\xd2F\xc0\x06p\xc9\xd3\xe5\x1cP'
p300
ssS'cse491_env_lib_python2_7_site-packages_jinja2_loaders'
p301
(dp302
g6
(dp303
g118
S'cse491_env_lib_python2_7_site-packages_jinja2_loaders.html'
p304
sg120
S'cse491.env/lib/python2.7/site-packages/jinja2/loaders'
p305
sg122
g13
(g14
g15
NtRp306
(dp307
g18
I1
sg19
I0
sg20
I221
sg21
I0
sg22
I0
sg23
I136
sg24
I0
sbssg25
S'\x83&\xd8\xa0D\xd5\xfe\xbf\xb7@\xe28D\xf6\xc7]'
p308
sssS'version'
p309
S'3.7.1'
p310
sS'settings'
p311
S'\x98\xa8x\xfe"r\xb5K\x98\xb1N\\\x99\x9e\xf3\xe5'
p312
sS'format'
p313
I1
s.